; Function Attrs: nounwind uwtable
define internal fastcc noalias nonnull ptr @_init_l_Prod_repr___at_Lean_Environment_dbgFormatAsyncState___spec__14___closed__6() unnamed_addr #1 {
  %1 = load ptr, ptr @l_Prod_repr___at_Lean_Environment_dbgFormatAsyncState___spec__14___closed__5, align 8, !tbaa !9
  tail call void @lean_inc_heartbeat() #10
  %2 = tail call noalias ptr @mi_malloc_small(i64 noundef 16) #10
  %3 = icmp eq ptr %2, null
  br i1 %3, label %4, label %lean_alloc_ctor.exit

4:                                                ; preds = %0
  tail call void @lean_internal_panic_out_of_memory() #11
  unreachable

lean_alloc_ctor.exit:                             ; preds = %0
  %5 = getelementptr inbounds nuw i8, ptr %2, i64 4
  store i32 1, ptr %2, align 4, !tbaa !4
  store i32 50397200, ptr %5, align 4
  %6 = getelementptr inbounds nuw i8, ptr %2, i64 8
  store ptr %1, ptr %6, align 8, !tbaa !9
  ret ptr %2
}